target datalayout = "e-m:e-p270:32:32-p271:32:32-p272:64:64-i64:64-i128:128-f80:128-n8:16:32:64-S128"
target triple = "x86_64-pc-linux-gnu"

%struct.tdefl_compressor = type { ptr, ptr, i32, [2 x i32], i32, i32, i32, i32, i32, ptr, ptr, ptr, ptr, i32, i32, i32, i32, i32, i32, i32, i32, i32, i32, i32, i32, i32, i32, ptr, ptr, ptr, ptr, i32, ptr, i64, i64, [33025 x i8], [3 x [288 x i16]], [3 x [288 x i16]], [3 x [288 x i8]], [65536 x i8], [32768 x i16], [32768 x i16], [85196 x i8] }
%struct.mz_zip_archive = type { i64, i64, i32, i32, i32, i32, i64, ptr, ptr, ptr, ptr, ptr, ptr, ptr, ptr, ptr }
%struct.mz_zip_internal_state_tag = type { %struct.mz_zip_array, %struct.mz_zip_array, %struct.mz_zip_array, i32, i32, i32, ptr, i64, ptr, i64, i64 }
%struct.mz_zip_array = type { ptr, i64, i64, i32 }
%struct.mz_zip_writer_add_state = type { ptr, i64, i64 }
%struct.zip_t = type { %struct.mz_zip_archive, i32, %struct.zip_entry_t }
%struct.zip_entry_t = type { i64, ptr, i64, i64, i32, i64, [30 x i8], i64, i16, %struct.mz_zip_writer_add_state, %struct.tdefl_compressor, i32, i64 }

; Function Attrs: alwaysinline nounwind uwtable
define internal void @mz_zip_array_clear(ptr noundef %0, ptr noundef %1) #7 {
  %3 = alloca ptr, align 8
  %4 = alloca ptr, align 8
  store ptr %0, ptr %3, align 8
  store ptr %1, ptr %4, align 8
  %5 = load ptr, ptr %3, align 8
  %6 = getelementptr inbounds nuw %struct.mz_zip_archive, ptr %5, i32 0, i32 8
  %7 = load ptr, ptr %6, align 8
  %8 = load ptr, ptr %3, align 8
  %9 = getelementptr inbounds nuw %struct.mz_zip_archive, ptr %8, i32 0, i32 10
  %10 = load ptr, ptr %9, align 8
  %11 = load ptr, ptr %4, align 8
  %12 = getelementptr inbounds nuw %struct.mz_zip_array, ptr %11, i32 0, i32 0
  %13 = load ptr, ptr %12, align 8
  call void %7(ptr noundef %10, ptr noundef %13)
  %14 = load ptr, ptr %4, align 8
  call void @llvm.memset.p0.i64(ptr align 8 %14, i8 0, i64 32, i1 false)
  ret void
}

; Function Attrs: nounwind uwtable
define internal i32 @mz_zip_reader_end_internal(ptr noundef %0, i32 noundef %1) #0 {
  %3 = alloca i32, align 4
  %4 = alloca ptr, align 8
  %5 = alloca i32, align 4
  %6 = alloca i32, align 4
  %7 = alloca i32, align 4
  %8 = alloca ptr, align 8
  store ptr %0, ptr %4, align 8
  store i32 %1, ptr %5, align 4
  call void @llvm.lifetime.start.p0(i64 4, ptr %6) #13
  store i32 1, ptr %6, align 4
  %9 = load ptr, ptr %4, align 8
  %10 = icmp ne ptr %9, null
  br i1 %10, label %12, label %11

11:                                               ; preds = %2
  store i32 0, ptr %3, align 4
  store i32 1, ptr %7, align 4
  br label %97

12:                                               ; preds = %2
  %13 = load ptr, ptr %4, align 8
  %14 = getelementptr inbounds nuw %struct.mz_zip_archive, ptr %13, i32 0, i32 15
  %15 = load ptr, ptr %14, align 8
  %16 = icmp ne ptr %15, null
  br i1 %16, label %17, label %32

17:                                               ; preds = %12
  %18 = load ptr, ptr %4, align 8
  %19 = getelementptr inbounds nuw %struct.mz_zip_archive, ptr %18, i32 0, i32 7
  %20 = load ptr, ptr %19, align 8
  %21 = icmp ne ptr %20, null
  br i1 %21, label %22, label %32

22:                                               ; preds = %17
  %23 = load ptr, ptr %4, align 8
  %24 = getelementptr inbounds nuw %struct.mz_zip_archive, ptr %23, i32 0, i32 8
  %25 = load ptr, ptr %24, align 8
  %26 = icmp ne ptr %25, null
  br i1 %26, label %27, label %32

27:                                               ; preds = %22
  %28 = load ptr, ptr %4, align 8
  %29 = getelementptr inbounds nuw %struct.mz_zip_archive, ptr %28, i32 0, i32 3
  %30 = load i32, ptr %29, align 4
  %31 = icmp ne i32 %30, 1
  br i1 %31, label %32, label %39

32:                                               ; preds = %27, %22, %17, %12
  %33 = load i32, ptr %5, align 4
  %34 = icmp ne i32 %33, 0
  br i1 %34, label %35, label %38

35:                                               ; preds = %32
  %36 = load ptr, ptr %4, align 8
  %37 = getelementptr inbounds nuw %struct.mz_zip_archive, ptr %36, i32 0, i32 5
  store i32 24, ptr %37, align 4
  br label %38

38:                                               ; preds = %35, %32
  store i32 0, ptr %3, align 4
  store i32 1, ptr %7, align 4
  br label %97

39:                                               ; preds = %27
  %40 = load ptr, ptr %4, align 8
  %41 = getelementptr inbounds nuw %struct.mz_zip_archive, ptr %40, i32 0, i32 15
  %42 = load ptr, ptr %41, align 8
  %43 = icmp ne ptr %42, null
  br i1 %43, label %44, label %93

44:                                               ; preds = %39
  call void @llvm.lifetime.start.p0(i64 8, ptr %8) #13
  %45 = load ptr, ptr %4, align 8
  %46 = getelementptr inbounds nuw %struct.mz_zip_archive, ptr %45, i32 0, i32 15
  %47 = load ptr, ptr %46, align 8
  store ptr %47, ptr %8, align 8
  %48 = load ptr, ptr %4, align 8
  %49 = getelementptr inbounds nuw %struct.mz_zip_archive, ptr %48, i32 0, i32 15
  store ptr null, ptr %49, align 8
  %50 = load ptr, ptr %4, align 8
  %51 = load ptr, ptr %8, align 8
  %52 = getelementptr inbounds nuw %struct.mz_zip_internal_state_tag, ptr %51, i32 0, i32 0
  call void @mz_zip_array_clear(ptr noundef %50, ptr noundef %52)
  %53 = load ptr, ptr %4, align 8
  %54 = load ptr, ptr %8, align 8
  %55 = getelementptr inbounds nuw %struct.mz_zip_internal_state_tag, ptr %54, i32 0, i32 1
  call void @mz_zip_array_clear(ptr noundef %53, ptr noundef %55)
  %56 = load ptr, ptr %4, align 8
  %57 = load ptr, ptr %8, align 8
  %58 = getelementptr inbounds nuw %struct.mz_zip_internal_state_tag, ptr %57, i32 0, i32 2
  call void @mz_zip_array_clear(ptr noundef %56, ptr noundef %58)
  %59 = load ptr, ptr %8, align 8
  %60 = getelementptr inbounds nuw %struct.mz_zip_internal_state_tag, ptr %59, i32 0, i32 6
  %61 = load ptr, ptr %60, align 8
  %62 = icmp ne ptr %61, null
  br i1 %62, label %63, label %85

63:                                               ; preds = %44
  %64 = load ptr, ptr %4, align 8
  %65 = getelementptr inbounds nuw %struct.mz_zip_archive, ptr %64, i32 0, i32 4
  %66 = load i32, ptr %65, align 8
  %67 = icmp eq i32 %66, 4
  br i1 %67, label %68, label %82

68:                                               ; preds = %63
  %69 = load ptr, ptr %8, align 8
  %70 = getelementptr inbounds nuw %struct.mz_zip_internal_state_tag, ptr %69, i32 0, i32 6
  %71 = load ptr, ptr %70, align 8
  %72 = call i32 @fclose(ptr noundef %71)
  %73 = icmp eq i32 %72, -1
  br i1 %73, label %74, label %81

74:                                               ; preds = %68
  %75 = load i32, ptr %5, align 4
  %76 = icmp ne i32 %75, 0
  br i1 %76, label %77, label %80

77:                                               ; preds = %74
  %78 = load ptr, ptr %4, align 8
  %79 = getelementptr inbounds nuw %struct.mz_zip_archive, ptr %78, i32 0, i32 5
  store i32 21, ptr %79, align 4
  br label %80

80:                                               ; preds = %77, %74
  store i32 0, ptr %6, align 4
  br label %81

81:                                               ; preds = %80, %68
  br label %82

82:                                               ; preds = %81, %63
  %83 = load ptr, ptr %8, align 8
  %84 = getelementptr inbounds nuw %struct.mz_zip_internal_state_tag, ptr %83, i32 0, i32 6
  store ptr null, ptr %84, align 8
  br label %85

85:                                               ; preds = %82, %44
  %86 = load ptr, ptr %4, align 8
  %87 = getelementptr inbounds nuw %struct.mz_zip_archive, ptr %86, i32 0, i32 8
  %88 = load ptr, ptr %87, align 8
  %89 = load ptr, ptr %4, align 8
  %90 = getelementptr inbounds nuw %struct.mz_zip_archive, ptr %89, i32 0, i32 10
  %91 = load ptr, ptr %90, align 8
  %92 = load ptr, ptr %8, align 8
  call void %88(ptr noundef %91, ptr noundef %92)
  call void @llvm.lifetime.end.p0(i64 8, ptr %8) #13
  br label %93

93:                                               ; preds = %85, %39
  %94 = load ptr, ptr %4, align 8
  %95 = getelementptr inbounds nuw %struct.mz_zip_archive, ptr %94, i32 0, i32 3
  store i32 0, ptr %95, align 4
  %96 = load i32, ptr %6, align 4
  store i32 %96, ptr %3, align 4
  store i32 1, ptr %7, align 4
  br label %97

97:                                               ; preds = %93, %38, %11
  call void @llvm.lifetime.end.p0(i64 4, ptr %6) #13
  %98 = load i32, ptr %3, align 4
  ret i32 %98
}

; Function Attrs: nounwind uwtable
define i32 @mz_zip_reader_end(ptr noundef %0) #0 {
  %2 = alloca ptr, align 8
  store ptr %0, ptr %2, align 8
  %3 = load ptr, ptr %2, align 8
  %4 = call i32 @mz_zip_reader_end_internal(ptr noundef %3, i32 noundef 1)
  ret i32 %4
}

; Function Attrs: nounwind uwtable
define i32 @mz_zip_writer_end(ptr noundef %0) #0 {
  %2 = alloca ptr, align 8
  store ptr %0, ptr %2, align 8
  %3 = load ptr, ptr %2, align 8
  %4 = call i32 @mz_zip_writer_end_internal(ptr noundef %3, i32 noundef 1)
  ret i32 %4
}

; Function Attrs: nounwind uwtable
define void @zip_stream_close(ptr noundef %0) #0 {
  %2 = alloca ptr, align 8
  store ptr %0, ptr %2, align 8
  %3 = load ptr, ptr %2, align 8
  %4 = icmp ne ptr %3, null
  br i1 %4, label %5, label %19

5:                                                ; preds = %1
  %6 = load ptr, ptr %2, align 8
  %7 = getelementptr inbounds nuw %struct.zip_t, ptr %6, i32 0, i32 0
  %8 = call i32 @mz_zip_writer_end(ptr noundef %7)
  %9 = load ptr, ptr %2, align 8
  %10 = getelementptr inbounds nuw %struct.zip_t, ptr %9, i32 0, i32 0
  %11 = call i32 @mz_zip_reader_end(ptr noundef %10)
  br label %12

12:                                               ; preds = %5
  %13 = load ptr, ptr %2, align 8
  %14 = icmp ne ptr %13, null
  br i1 %14, label %15, label %17

15:                                               ; preds = %12
  %16 = load ptr, ptr %2, align 8
  call void @free(ptr noundef %16) #13
  store ptr null, ptr %2, align 8
  br label %17

17:                                               ; preds = %15, %12
  br label %18

18:                                               ; preds = %17
  br label %19

19:                                               ; preds = %18, %1
  ret void
}