; Function Attrs: nounwind uwtable
define void @zip_stream_close(ptr noundef captures(address_is_null) %0) local_unnamed_addr #8 {
  %.not = icmp eq ptr %0, null
  br i1 %.not, label %42, label %2

2:                                                ; preds = %1
  %3 = tail call fastcc range(i32 0, 2) i32 @mz_zip_writer_end_internal(ptr noundef nonnull %0, i32 noundef 1)
  %4 = getelementptr inbounds nuw i8, ptr %0, i64 104
  %5 = load ptr, ptr %4, align 8
  %.not31.i = icmp eq ptr %5, null
  br i1 %.not31.i, label %mz_zip_reader_end_internal.exit, label %6

6:                                                ; preds = %2
  %7 = getelementptr inbounds nuw i8, ptr %0, i64 40
  %8 = load ptr, ptr %7, align 8
  %.not32.i = icmp eq ptr %8, null
  br i1 %.not32.i, label %mz_zip_reader_end_internal.exit, label %9

9:                                                ; preds = %6
  %10 = getelementptr inbounds nuw i8, ptr %0, i64 48
  %11 = load ptr, ptr %10, align 8
  %.not33.i = icmp eq ptr %11, null
  br i1 %.not33.i, label %mz_zip_reader_end_internal.exit, label %12

12:                                               ; preds = %9
  %13 = getelementptr inbounds nuw i8, ptr %0, i64 20
  %14 = load i32, ptr %13, align 4
  %.not34.i = icmp eq i32 %14, 1
  br i1 %.not34.i, label %15, label %mz_zip_reader_end_internal.exit

15:                                               ; preds = %12
  store ptr null, ptr %4, align 8
  %16 = getelementptr inbounds nuw i8, ptr %0, i64 64
  %17 = load ptr, ptr %16, align 8
  %18 = load ptr, ptr %5, align 8
  tail call void %11(ptr noundef %17, ptr noundef %18) #34
  tail call void @llvm.memset.p0.i64(ptr noundef nonnull align 8 dereferenceable(32) %5, i8 0, i64 32, i1 false)
  %19 = getelementptr inbounds nuw i8, ptr %5, i64 32
  %20 = load ptr, ptr %10, align 8
  %21 = load ptr, ptr %16, align 8
  %22 = load ptr, ptr %19, align 8
  tail call void %20(ptr noundef %21, ptr noundef %22) #34
  tail call void @llvm.memset.p0.i64(ptr noundef nonnull align 8 dereferenceable(32) %19, i8 0, i64 32, i1 false)
  %23 = getelementptr inbounds nuw i8, ptr %5, i64 64
  %24 = load ptr, ptr %10, align 8
  %25 = load ptr, ptr %16, align 8
  %26 = load ptr, ptr %23, align 8
  tail call void %24(ptr noundef %25, ptr noundef %26) #34
  tail call void @llvm.memset.p0.i64(ptr noundef nonnull align 8 dereferenceable(32) %23, i8 0, i64 32, i1 false)
  %27 = getelementptr inbounds nuw i8, ptr %5, i64 112
  %28 = load ptr, ptr %27, align 8
  %.not35.i = icmp eq ptr %28, null
  br i1 %.not35.i, label %39, label %29

29:                                               ; preds = %15
  %30 = getelementptr inbounds nuw i8, ptr %0, i64 24
  %31 = load i32, ptr %30, align 8
  %32 = icmp eq i32 %31, 4
  br i1 %32, label %33, label %38

33:                                               ; preds = %29
  %34 = tail call i32 @fclose(ptr noundef nonnull %28)
  %35 = icmp eq i32 %34, -1
  br i1 %35, label %36, label %38

36:                                               ; preds = %33
  %37 = getelementptr inbounds nuw i8, ptr %0, i64 28
  store i32 21, ptr %37, align 4
  br label %38

38:                                               ; preds = %36, %33, %29
  store ptr null, ptr %27, align 8
  br label %39

39:                                               ; preds = %38, %15
  %40 = load ptr, ptr %10, align 8
  %41 = load ptr, ptr %16, align 8
  tail call void %40(ptr noundef %41, ptr noundef nonnull %5) #34
  br label %mz_zip_reader_end_internal.exit

mz_zip_reader_end_internal.exit:                  ; preds = %2, %6, %9, %12, %39
  tail call void @free(ptr noundef nonnull %0) #34
  br label %42

42:                                               ; preds = %mz_zip_reader_end_internal.exit, %1
  ret void
}